; Function Attrs: nounwind uwtable
define internal ptr @pack_into(ptr noundef readonly captures(none) %0, ptr noundef readonly captures(none) %1, i64 noundef %2) #0 {
  %4 = alloca ptr, align 8
  call void @llvm.lifetime.start.p0(i64 8, ptr nonnull %4) #7
  store ptr null, ptr %4, align 8, !tbaa !17
  %5 = icmp eq i64 %2, 0
  br i1 %5, label %6, label %8

6:                                                ; preds = %3
  %7 = load ptr, ptr @PyExc_TypeError, align 8, !tbaa !17
  tail call void @PyErr_SetString(ptr noundef %7, ptr noundef nonnull @.str.11) #7
  br label %Py_DECREF.exit

8:                                                ; preds = %3
  %9 = load ptr, ptr %1, align 8, !tbaa !17
  %10 = getelementptr i8, ptr %0, i64 32
  %.val = load ptr, ptr %10, align 8, !tbaa !3
  %11 = call fastcc i32 @cache_struct_converter(ptr %.val, ptr noundef %9, ptr noundef %4)
  %.not = icmp eq i32 %11, 0
  br i1 %.not, label %Py_DECREF.exit, label %12

12:                                               ; preds = %8
  %13 = load ptr, ptr %4, align 8, !tbaa !17
  %14 = getelementptr i8, ptr %1, i64 8
  %15 = add i64 %2, -1
  %16 = tail call ptr @s_pack_into(ptr noundef %13, ptr noundef %14, i64 noundef %15)
  %17 = load i32, ptr %13, align 8, !tbaa !18
  %.not.i = icmp sgt i32 %17, -1
  br i1 %.not.i, label %18, label %Py_DECREF.exit

18:                                               ; preds = %12
  %19 = add nsw i32 %17, -1
  store i32 %19, ptr %13, align 8, !tbaa !18
  %20 = icmp eq i32 %19, 0
  br i1 %20, label %21, label %Py_DECREF.exit

21:                                               ; preds = %18
  tail call void @_Py_Dealloc(ptr noundef nonnull %13) #7
  br label %Py_DECREF.exit

Py_DECREF.exit:                                   ; preds = %21, %18, %12, %8, %6
  %.0 = phi ptr [ null, %6 ], [ null, %8 ], [ %16, %12 ], [ %16, %18 ], [ %16, %21 ]
  call void @llvm.lifetime.end.p0(i64 8, ptr nonnull %4) #7
  ret ptr %.0
}